target datalayout = "e-m:e-p270:32:32-p271:32:32-p272:64:64-i64:64-i128:128-f80:128-n8:16:32:64-S128"
target triple = "x86_64-pc-linux-gnu"

%struct.PaPulseAudio_Stream = type { %struct.PaUtilStreamRepresentation, %struct.PaUtilCpuLoadMeasurer, %struct.PaUtilBufferProcessor, ptr, i64, ptr, ptr, %struct.pa_sample_spec, %struct.pa_sample_spec, ptr, ptr, %struct.pa_buffer_attr, %struct.pa_buffer_attr, i32, i32, i32, i32, i64, i64, i32, i32, i32, i32, ptr, ptr, %struct.PaUtilRingBuffer, i64, i32, i32, i32, i32 }
%struct.PaUtilStreamRepresentation = type { i64, ptr, ptr, ptr, ptr, ptr, %struct.PaStreamInfo }
%struct.PaStreamInfo = type { i32, double, double, double }
%struct.PaUtilCpuLoadMeasurer = type { double, double, double }
%struct.PaUtilBufferProcessor = type { i64, i64, i32, i32, i32, i32, i64, i32, i32, i32, i32, ptr, ptr, i32, i32, i32, i32, ptr, ptr, i64, i64, ptr, ptr, i64, ptr, ptr, i64, ptr, i64, i32, [2 x i64], [2 x ptr], i32, [2 x i64], [2 x ptr], %struct.PaUtilTriangularDitherGenerator, double, ptr, ptr }
%struct.PaUtilTriangularDitherGenerator = type { i32, i32, i32 }
%struct.pa_sample_spec = type { i32, i32, i8 }
%struct.pa_buffer_attr = type { i32, i32, i32, i32, i32 }
%struct.PaUtilRingBuffer = type { i64, i64, i64, i64, i64, i64, ptr }

; Function Attrs: nounwind uwtable
define internal i32 @PA_STREAM_IS_GOOD(i32 noundef %0) #0 {
  %2 = alloca i32, align 4
  store i32 %0, ptr %2, align 4
  %3 = load i32, ptr %2, align 4
  %4 = icmp eq i32 %3, 1
  br i1 %4, label %8, label %5

5:                                                ; preds = %1
  %6 = load i32, ptr %2, align 4
  %7 = icmp eq i32 %6, 2
  br label %8

8:                                                ; preds = %5, %1
  %9 = phi i1 [ true, %1 ], [ %7, %5 ]
  %10 = zext i1 %9 to i32
  ret i32 %10
}

; Function Attrs: nounwind uwtable
define internal i32 @PA_CONTEXT_IS_GOOD(i32 noundef %0) #0 {
  %2 = alloca i32, align 4
  store i32 %0, ptr %2, align 4
  %3 = load i32, ptr %2, align 4
  %4 = icmp eq i32 %3, 1
  br i1 %4, label %14, label %5

5:                                                ; preds = %1
  %6 = load i32, ptr %2, align 4
  %7 = icmp eq i32 %6, 2
  br i1 %7, label %14, label %8

8:                                                ; preds = %5
  %9 = load i32, ptr %2, align 4
  %10 = icmp eq i32 %9, 3
  br i1 %10, label %14, label %11

11:                                               ; preds = %8
  %12 = load i32, ptr %2, align 4
  %13 = icmp eq i32 %12, 4
  br label %14

14:                                               ; preds = %11, %8, %5, %1
  %15 = phi i1 [ true, %8 ], [ true, %5 ], [ true, %1 ], [ %13, %11 ]
  %16 = zext i1 %15 to i32
  ret i32 %16
}

; Function Attrs: nounwind uwtable
define i32 @PaPulseAudio_ReadStreamBlock(ptr noundef %0, ptr noundef %1, i64 noundef %2) #0 {
  %4 = alloca i32, align 4
  %5 = alloca ptr, align 8
  %6 = alloca ptr, align 8
  %7 = alloca i64, align 8
  %8 = alloca ptr, align 8
  %9 = alloca ptr, align 8
  %10 = alloca i32, align 4
  %11 = alloca ptr, align 8
  %12 = alloca i64, align 8
  %13 = alloca i64, align 8
  store ptr %0, ptr %5, align 8
  store ptr %1, ptr %6, align 8
  store i64 %2, ptr %7, align 8
  %14 = load ptr, ptr %5, align 8
  store ptr %14, ptr %8, align 8
  %15 = load ptr, ptr %8, align 8
  %16 = getelementptr inbounds nuw %struct.PaPulseAudio_Stream, ptr %15, i32 0, i32 3
  %17 = load ptr, ptr %16, align 8
  store ptr %17, ptr %9, align 8
  store i32 0, ptr %10, align 4
  %18 = load ptr, ptr %6, align 8
  store ptr %18, ptr %11, align 8
  %19 = load i64, ptr %7, align 8
  %20 = load ptr, ptr %8, align 8
  %21 = getelementptr inbounds nuw %struct.PaPulseAudio_Stream, ptr %20, i32 0, i32 20
  %22 = load i32, ptr %21, align 4
  %23 = sext i32 %22 to i64
  %24 = mul i64 %19, %23
  store i64 %24, ptr %12, align 8
  br label %25

25:                                               ; preds = %145, %3
  %26 = load i64, ptr %12, align 8
  %27 = icmp sgt i64 %26, 0
  br i1 %27, label %28, label %146

28:                                               ; preds = %25
  %29 = load ptr, ptr %8, align 8
  %30 = icmp ne ptr %29, null
  br i1 %30, label %31, label %67

31:                                               ; preds = %28
  %32 = load ptr, ptr %8, align 8
  %33 = getelementptr inbounds nuw %struct.PaPulseAudio_Stream, ptr %32, i32 0, i32 6
  %34 = load ptr, ptr %33, align 8
  %35 = icmp ne ptr %34, null
  br i1 %35, label %36, label %67

36:                                               ; preds = %31
  %37 = load ptr, ptr %8, align 8
  %38 = getelementptr inbounds nuw %struct.PaPulseAudio_Stream, ptr %37, i32 0, i32 6
  %39 = load ptr, ptr %38, align 8
  %40 = call i32 @pa_context_get_state(ptr noundef %39)
  %41 = call i32 @PA_CONTEXT_IS_GOOD(i32 noundef %40)
  %42 = icmp ne i32 %41, 0
  br i1 %42, label %43, label %67

43:                                               ; preds = %36
  %44 = load ptr, ptr %8, align 8
  %45 = getelementptr inbounds nuw %struct.PaPulseAudio_Stream, ptr %44, i32 0, i32 9
  %46 = load ptr, ptr %45, align 8
  %47 = icmp ne ptr %46, null
  br i1 %47, label %48, label %55

48:                                               ; preds = %43
  %49 = load ptr, ptr %8, align 8
  %50 = getelementptr inbounds nuw %struct.PaPulseAudio_Stream, ptr %49, i32 0, i32 9
  %51 = load ptr, ptr %50, align 8
  %52 = call i32 @pa_stream_get_state(ptr noundef %51)
  %53 = call i32 @PA_STREAM_IS_GOOD(i32 noundef %52)
  %54 = icmp ne i32 %53, 0
  br i1 %54, label %55, label %67

55:                                               ; preds = %48, %43
  %56 = load ptr, ptr %8, align 8
  %57 = getelementptr inbounds nuw %struct.PaPulseAudio_Stream, ptr %56, i32 0, i32 10
  %58 = load ptr, ptr %57, align 8
  %59 = icmp ne ptr %58, null
  br i1 %59, label %60, label %105

60:                                               ; preds = %55
  %61 = load ptr, ptr %8, align 8
  %62 = getelementptr inbounds nuw %struct.PaPulseAudio_Stream, ptr %61, i32 0, i32 10
  %63 = load ptr, ptr %62, align 8
  %64 = call i32 @pa_stream_get_state(ptr noundef %63)
  %65 = call i32 @PA_STREAM_IS_GOOD(i32 noundef %64)
  %66 = icmp ne i32 %65, 0
  br i1 %66, label %105, label %67

67:                                               ; preds = %60, %48, %36, %31, %28
  %68 = load ptr, ptr %8, align 8
  %69 = icmp ne ptr %68, null
  br i1 %69, label %70, label %103

70:                                               ; preds = %67
  %71 = load ptr, ptr %8, align 8
  %72 = getelementptr inbounds nuw %struct.PaPulseAudio_Stream, ptr %71, i32 0, i32 6
  %73 = load ptr, ptr %72, align 8
  %74 = icmp ne ptr %73, null
  br i1 %74, label %75, label %81

75:                                               ; preds = %70
  %76 = load ptr, ptr %8, align 8
  %77 = getelementptr inbounds nuw %struct.PaPulseAudio_Stream, ptr %76, i32 0, i32 6
  %78 = load ptr, ptr %77, align 8
  %79 = call i32 @pa_context_get_state(ptr noundef %78)
  %80 = icmp eq i32 %79, 5
  br i1 %80, label %103, label %81

81:                                               ; preds = %75, %70
  %82 = load ptr, ptr %8, align 8
  %83 = getelementptr inbounds nuw %struct.PaPulseAudio_Stream, ptr %82, i32 0, i32 9
  %84 = load ptr, ptr %83, align 8
  %85 = icmp ne ptr %84, null
  br i1 %85, label %86, label %92

86:                                               ; preds = %81
  %87 = load ptr, ptr %8, align 8
  %88 = getelementptr inbounds nuw %struct.PaPulseAudio_Stream, ptr %87, i32 0, i32 9
  %89 = load ptr, ptr %88, align 8
  %90 = call i32 @pa_stream_get_state(ptr noundef %89)
  %91 = icmp eq i32 %90, 3
  br i1 %91, label %103, label %92

92:                                               ; preds = %86, %81
  %93 = load ptr, ptr %8, align 8
  %94 = getelementptr inbounds nuw %struct.PaPulseAudio_Stream, ptr %93, i32 0, i32 10
  %95 = load ptr, ptr %94, align 8
  %96 = icmp ne ptr %95, null
  br i1 %96, label %97, label %104

97:                                               ; preds = %92
  %98 = load ptr, ptr %8, align 8
  %99 = getelementptr inbounds nuw %struct.PaPulseAudio_Stream, ptr %98, i32 0, i32 10
  %100 = load ptr, ptr %99, align 8
  %101 = call i32 @pa_stream_get_state(ptr noundef %100)
  %102 = icmp eq i32 %101, 3
  br i1 %102, label %103, label %104

103:                                              ; preds = %97, %86, %75, %67
  store i32 -9983, ptr %4, align 4
  br label %147

104:                                              ; preds = %97, %92
  br label %105

105:                                              ; preds = %104, %60, %55
  %106 = load ptr, ptr %8, align 8
  %107 = getelementptr inbounds nuw %struct.PaPulseAudio_Stream, ptr %106, i32 0, i32 27
  %108 = load volatile i32, ptr %107, align 8
  %109 = icmp ne i32 %108, 0
  br i1 %109, label %110, label %115

110:                                              ; preds = %105
  %111 = load ptr, ptr %8, align 8
  %112 = getelementptr inbounds nuw %struct.PaPulseAudio_Stream, ptr %111, i32 0, i32 28
  %113 = load volatile i32, ptr %112, align 4
  %114 = icmp ne i32 %113, 0
  br i1 %114, label %115, label %116

115:                                              ; preds = %110, %105
  store i32 -9983, ptr %4, align 4
  br label %147

116:                                              ; preds = %110
  %117 = load ptr, ptr %8, align 8
  %118 = getelementptr inbounds nuw %struct.PaPulseAudio_Stream, ptr %117, i32 0, i32 5
  %119 = load ptr, ptr %118, align 8
  call void @PaPulseAudio_Lock(ptr noundef %119)
  %120 = load ptr, ptr %8, align 8
  %121 = getelementptr inbounds nuw %struct.PaPulseAudio_Stream, ptr %120, i32 0, i32 25
  %122 = load ptr, ptr %11, align 8
  %123 = load i64, ptr %12, align 8
  %124 = call i64 @PaUtil_ReadRingBuffer(ptr noundef %121, ptr noundef %122, i64 noundef %123)
  store i64 %124, ptr %13, align 8
  %125 = load i64, ptr %13, align 8
  %126 = load ptr, ptr %11, align 8
  %127 = getelementptr inbounds i8, ptr %126, i64 %125
  store ptr %127, ptr %11, align 8
  %128 = load i64, ptr %13, align 8
  %129 = load i64, ptr %12, align 8
  %130 = sub nsw i64 %129, %128
  store i64 %130, ptr %12, align 8
  %131 = load i64, ptr %12, align 8
  %132 = icmp sgt i64 %131, 0
  br i1 %132, label %133, label %137

133:                                              ; preds = %116
  %134 = load ptr, ptr %8, align 8
  %135 = getelementptr inbounds nuw %struct.PaPulseAudio_Stream, ptr %134, i32 0, i32 5
  %136 = load ptr, ptr %135, align 8
  call void @pa_threaded_mainloop_wait(ptr noundef %136)
  br label %137

137:                                              ; preds = %133, %116
  %138 = load ptr, ptr %8, align 8
  %139 = getelementptr inbounds nuw %struct.PaPulseAudio_Stream, ptr %138, i32 0, i32 5
  %140 = load ptr, ptr %139, align 8
  call void @PaPulseAudio_UnLock(ptr noundef %140)
  %141 = load i64, ptr %12, align 8
  %142 = icmp sgt i64 %141, 0
  br i1 %142, label %143, label %145

143:                                              ; preds = %137
  %144 = call i32 @usleep(i32 noundef 100)
  br label %145

145:                                              ; preds = %143, %137
  br label %25, !llvm.loop !4

146:                                              ; preds = %25
  store i32 0, ptr %4, align 4
  br label %147

147:                                              ; preds = %146, %115, %103
  %148 = load i32, ptr %4, align 4
  ret i32 %148
}