; Function Attrs: nounwind uwtable
define range(i32 -9983, 1) i32 @PaPulseAudio_ReadStreamBlock(ptr noundef %0, ptr noundef %1, i64 noundef %2) local_unnamed_addr #0 {
  %4 = getelementptr inbounds nuw i8, ptr %0, i64 556
  %5 = load i32, ptr %4, align 4
  %6 = sext i32 %5 to i64
  %7 = mul i64 %2, %6
  %8 = getelementptr inbounds nuw i8, ptr %0, i64 652
  %9 = icmp sgt i64 %7, 0
  br i1 %9, label %.lr.ph, label %.critedge

.lr.ph:                                           ; preds = %3
  %10 = getelementptr inbounds nuw i8, ptr %0, i64 432
  %11 = getelementptr inbounds nuw i8, ptr %0, i64 464
  %12 = getelementptr inbounds nuw i8, ptr %0, i64 472
  %13 = getelementptr inbounds nuw i8, ptr %0, i64 648
  %14 = getelementptr inbounds nuw i8, ptr %0, i64 424
  %15 = getelementptr inbounds nuw i8, ptr %0, i64 584
  br label %16

16:                                               ; preds = %56, %.lr.ph
  %.03458 = phi i64 [ %7, %.lr.ph ], [ %53, %56 ]
  %.03557 = phi ptr [ %1, %.lr.ph ], [ %57, %56 ]
  %17 = load ptr, ptr %10, align 8
  %.not43 = icmp eq ptr %17, null
  br i1 %.not43, label %.thread, label %18

18:                                               ; preds = %16
  %19 = tail call i32 @pa_context_get_state(ptr noundef nonnull %17) #3
  %20 = add i32 %19, -5
  %narrow.i = icmp ult i32 %20, -4
  br i1 %narrow.i, label %33, label %21

21:                                               ; preds = %18
  %22 = load ptr, ptr %11, align 8
  %.not45 = icmp eq ptr %22, null
  br i1 %.not45, label %27, label %23

23:                                               ; preds = %21
  %24 = tail call i32 @pa_stream_get_state(ptr noundef nonnull %22) #3
  %25 = add i32 %24, -3
  %26 = icmp ult i32 %25, -2
  br i1 %26, label %33, label %27

27:                                               ; preds = %23, %21
  %28 = load ptr, ptr %12, align 8
  %.not47 = icmp eq ptr %28, null
  br i1 %.not47, label %46, label %29

29:                                               ; preds = %27
  %30 = tail call i32 @pa_stream_get_state(ptr noundef nonnull %28) #3
  %31 = add i32 %30, -3
  %32 = icmp ult i32 %31, -2
  br i1 %32, label %33, label %46

33:                                               ; preds = %18, %23, %29
  %.pr = load ptr, ptr %10, align 8
  %.not49 = icmp eq ptr %.pr, null
  br i1 %.not49, label %.thread, label %34

34:                                               ; preds = %33
  %35 = tail call i32 @pa_context_get_state(ptr noundef nonnull %.pr) #3
  %36 = icmp eq i32 %35, 5
  br i1 %36, label %.critedge, label %.thread

.thread:                                          ; preds = %16, %34, %33
  %37 = load ptr, ptr %11, align 8
  %.not50 = icmp eq ptr %37, null
  br i1 %.not50, label %41, label %38

38:                                               ; preds = %.thread
  %39 = tail call i32 @pa_stream_get_state(ptr noundef nonnull %37) #3
  %40 = icmp eq i32 %39, 3
  br i1 %40, label %.critedge, label %41

41:                                               ; preds = %38, %.thread
  %42 = load ptr, ptr %12, align 8
  %.not51 = icmp eq ptr %42, null
  br i1 %.not51, label %46, label %43

43:                                               ; preds = %41
  %44 = tail call i32 @pa_stream_get_state(ptr noundef nonnull %42) #3
  %45 = icmp eq i32 %44, 3
  br i1 %45, label %.critedge, label %46

46:                                               ; preds = %41, %43, %29, %27
  %47 = load volatile i32, ptr %13, align 8
  %.not52 = icmp eq i32 %47, 0
  br i1 %.not52, label %.critedge, label %48

48:                                               ; preds = %46
  %49 = load volatile i32, ptr %8, align 4
  %.not53 = icmp eq i32 %49, 0
  br i1 %.not53, label %50, label %.critedge

50:                                               ; preds = %48
  %51 = load ptr, ptr %14, align 8
  tail call void @PaPulseAudio_Lock(ptr noundef %51) #3
  %52 = tail call i64 @PaUtil_ReadRingBuffer(ptr noundef nonnull %15, ptr noundef %.03557, i64 noundef %.03458) #3
  %53 = sub nsw i64 %.03458, %52
  %54 = icmp sgt i64 %53, 0
  %55 = load ptr, ptr %14, align 8
  br i1 %54, label %56, label %.thread69

.thread69:                                        ; preds = %50
  tail call void @PaPulseAudio_UnLock(ptr noundef %55) #3
  br label %.critedge

56:                                               ; preds = %50
  %57 = getelementptr inbounds i8, ptr %.03557, i64 %52
  tail call void @pa_threaded_mainloop_wait(ptr noundef %55) #3
  %58 = load ptr, ptr %14, align 8
  tail call void @PaPulseAudio_UnLock(ptr noundef %58) #3
  %59 = tail call i32 @usleep(i32 noundef 100) #3
  br label %16, !llvm.loop !4

.critedge:                                        ; preds = %43, %38, %34, %48, %46, %.thread69, %3
  %.0 = phi i32 [ 0, %3 ], [ 0, %.thread69 ], [ -9983, %46 ], [ -9983, %48 ], [ -9983, %34 ], [ -9983, %38 ], [ -9983, %43 ]
  ret i32 %.0
}